target datalayout = "e-m:e-p270:32:32-p271:32:32-p272:64:64-i64:64-i128:128-f80:128-n8:16:32:64-S128"
target triple = "x86_64-pc-linux-gnu"

%"class.sls::bv_lookahead" = type { %class.bv_util, ptr, ptr, ptr, %"struct.sls::bv_lookahead::config", %"struct.sls::bv_lookahead::stats", %"class.sls::bvect", %"class.sls::bvect", %class.ptr_vector, %class.svector.1, %class.vector.3, %class.obj_mark, double, double, %"class.sls::bvect", ptr, ptr, %class.ptr_vector, %class.vector.4, %class.obj_mark, i32, %class.tracked_uint_set, i32, i32 }
%class.bv_util = type { %class.bv_recognizers, ptr, ptr }
%class.bv_recognizers = type { i32 }
%"struct.sls::bv_lookahead::config" = type <{ i8, [7 x i8], double, i32, i32, i8, i8, i8, i8, i32, i32, i32, i32, i8, [3 x i8], i32, i32, i32, i8, [3 x i8], double, double, i8, [7 x i8], double, i8, i8, i8, [5 x i8] }>
%"struct.sls::bv_lookahead::stats" = type { i32, i32, i32, i32, i32, i32 }
%class.svector.1 = type { %class.vector.2 }
%class.vector.2 = type { ptr }
%class.vector.3 = type { ptr }
%"class.sls::bvect" = type <{ %class.svector, i32, i32, i32, [4 x i8] }>
%class.svector = type { %class.vector }
%class.vector = type { ptr }
%class.ptr_vector = type { %class.vector.0 }
%class.vector.0 = type { ptr }
%class.vector.4 = type { ptr }
%class.obj_mark = type { [8 x i8], %class.bit_vector }
%class.bit_vector = type { i32, i32, ptr }
%class.tracked_uint_set = type { %class.svector.5, %class.svector }
%class.svector.5 = type { %class.vector.6 }
%class.vector.6 = type { ptr }

; Function Attrs: mustprogress nounwind uwtable
define linkonce_odr hidden noundef nonnull align 4 dereferenceable(4) ptr @_ZN6vectorIjLb0EjEixEj(ptr noundef nonnull align 8 dereferenceable(8) %0, i32 noundef %1) #6 comdat align 2 {
  %3 = alloca ptr, align 8
  %4 = alloca i32, align 4
  store ptr %0, ptr %3, align 8, !tbaa !130
  store i32 %1, ptr %4, align 4, !tbaa !185
  %5 = load ptr, ptr %3, align 8
  %6 = getelementptr inbounds nuw %class.vector, ptr %5, i32 0, i32 0
  %7 = load ptr, ptr %6, align 8, !tbaa !348
  %8 = load i32, ptr %4, align 4, !tbaa !185
  %9 = zext i32 %8 to i64
  %10 = getelementptr inbounds nuw i32, ptr %7, i64 %9
  ret ptr %10
}

; Function Attrs: mustprogress nounwind uwtable
define linkonce_odr hidden noundef nonnull align 4 dereferenceable(4) ptr @_ZNK6vectorIjLb0EjEixEj(ptr noundef nonnull align 8 dereferenceable(8) %0, i32 noundef %1) #6 comdat align 2 {
  %3 = alloca ptr, align 8
  %4 = alloca i32, align 4
  store ptr %0, ptr %3, align 8, !tbaa !130
  store i32 %1, ptr %4, align 4, !tbaa !185
  %5 = load ptr, ptr %3, align 8
  %6 = getelementptr inbounds nuw %class.vector, ptr %5, i32 0, i32 0
  %7 = load ptr, ptr %6, align 8, !tbaa !348
  %8 = load i32, ptr %4, align 4, !tbaa !185
  %9 = zext i32 %8 to i64
  %10 = getelementptr inbounds nuw i32, ptr %7, i64 %9
  ret ptr %10
}

; Function Attrs: mustprogress uwtable
define linkonce_odr hidden void @_ZNK3sls5bvect7copy_toEjRS0_(ptr noundef nonnull align 8 dereferenceable(20) %0, i32 noundef %1, ptr noundef nonnull align 8 dereferenceable(20) %2) #4 comdat align 2 {
  %4 = alloca ptr, align 8
  %5 = alloca i32, align 4
  %6 = alloca ptr, align 8
  %7 = alloca i32, align 4
  store ptr %0, ptr %4, align 8, !tbaa !107
  store i32 %1, ptr %5, align 4, !tbaa !185
  store ptr %2, ptr %6, align 8, !tbaa !107
  %8 = load ptr, ptr %4, align 8
  call void @llvm.lifetime.start.p0(i64 4, ptr %7) #3
  store i32 0, ptr %7, align 4, !tbaa !185
  br label %9

9:                                                ; preds = %21, %3
  %10 = load i32, ptr %7, align 4, !tbaa !185
  %11 = load i32, ptr %5, align 4, !tbaa !185
  %12 = icmp ult i32 %10, %11
  br i1 %12, label %14, label %13

13:                                               ; preds = %9
  call void @llvm.lifetime.end.p0(i64 4, ptr %7) #3
  br label %24

14:                                               ; preds = %9
  %15 = load i32, ptr %7, align 4, !tbaa !185
  %16 = call noundef nonnull align 4 dereferenceable(4) ptr @_ZNK6vectorIjLb0EjEixEj(ptr noundef nonnull align 8 dereferenceable(8) %8, i32 noundef %15)
  %17 = load i32, ptr %16, align 4, !tbaa !185
  %18 = load ptr, ptr %6, align 8, !tbaa !107
  %19 = load i32, ptr %7, align 4, !tbaa !185
  %20 = call noundef nonnull align 4 dereferenceable(4) ptr @_ZN6vectorIjLb0EjEixEj(ptr noundef nonnull align 8 dereferenceable(8) %18, i32 noundef %19)
  store i32 %17, ptr %20, align 4, !tbaa !185
  br label %21

21:                                               ; preds = %14
  %22 = load i32, ptr %7, align 4, !tbaa !185
  %23 = add i32 %22, 1
  store i32 %23, ptr %7, align 4, !tbaa !185
  br label %9, !llvm.loop !236

24:                                               ; preds = %13
  ret void
}

; Function Attrs: mustprogress uwtable
define hidden noundef nonnull align 8 dereferenceable(184) ptr @_ZNK3sls12bv_lookahead4wvalEP4expr(ptr noundef nonnull align 8 dereferenceable(400) %0, ptr noundef %1) #4 align 2 {
  %3 = alloca ptr, align 8
  %4 = alloca ptr, align 8
  store ptr %0, ptr %3, align 8, !tbaa !3
  store ptr %1, ptr %4, align 8, !tbaa !173
  %5 = load ptr, ptr %3, align 8
  %6 = getelementptr inbounds nuw %"class.sls::bv_lookahead", ptr %5, i32 0, i32 1
  %7 = load ptr, ptr %6, align 8, !tbaa !140
  %8 = load ptr, ptr %4, align 8, !tbaa !173
  %9 = call noundef nonnull align 8 dereferenceable(184) ptr @_ZNK3sls7bv_eval4wvalEP4expr(ptr noundef nonnull align 8 dereferenceable(865) %7, ptr noundef %8)
  ret ptr %9
}

; Function Attrs: mustprogress uwtable
define hidden void @_ZN3sls12bv_lookahead7try_setEP4exprRKNS_5bvectE(ptr noundef nonnull align 8 dereferenceable(400) %0, ptr noundef %1, ptr noundef nonnull align 8 dereferenceable(20) %2) #4 align 2 {
  %4 = alloca ptr, align 8
  %5 = alloca ptr, align 8
  %6 = alloca ptr, align 8
  %7 = alloca double, align 8
  store ptr %0, ptr %4, align 8, !tbaa !3
  store ptr %1, ptr %5, align 8, !tbaa !173
  store ptr %2, ptr %6, align 8, !tbaa !107
  %8 = load ptr, ptr %4, align 8
  %9 = load ptr, ptr %5, align 8, !tbaa !173
  %10 = call noundef nonnull align 8 dereferenceable(184) ptr @_ZNK3sls12bv_lookahead4wvalEP4expr(ptr noundef nonnull align 8 dereferenceable(400) %8, ptr noundef %9)
  %11 = load ptr, ptr %6, align 8, !tbaa !107
  %12 = call noundef zeroext i1 @_ZNK3sls12bv_valuation7can_setERKNS_5bvectE(ptr noundef nonnull align 8 dereferenceable(184) %10, ptr noundef nonnull align 8 dereferenceable(20) %11)
  br i1 %12, label %14, label %13

13:                                               ; preds = %3
  br label %41

14:                                               ; preds = %3
  call void @llvm.lifetime.start.p0(i64 8, ptr %7) #3
  %15 = load ptr, ptr %5, align 8, !tbaa !173
  %16 = load ptr, ptr %6, align 8, !tbaa !107
  %17 = call noundef double @_ZN3sls12bv_lookahead16lookahead_updateEP4exprRKNS_5bvectE(ptr noundef nonnull align 8 dereferenceable(400) %8, ptr noundef %15, ptr noundef nonnull align 8 dereferenceable(20) %16)
  store double %17, ptr %7, align 8, !tbaa !179
  %18 = getelementptr inbounds nuw %"class.sls::bv_lookahead", ptr %8, i32 0, i32 5
  %19 = getelementptr inbounds nuw %"struct.sls::bv_lookahead::stats", ptr %18, i32 0, i32 0
  %20 = load i32, ptr %19, align 8, !tbaa !347
  %21 = add i32 %20, 1
  store i32 %21, ptr %19, align 8, !tbaa !347
  %22 = load double, ptr %7, align 8, !tbaa !179
  %23 = getelementptr inbounds nuw %"class.sls::bv_lookahead", ptr %8, i32 0, i32 12
  %24 = load double, ptr %23, align 8, !tbaa !67
  %25 = fcmp ogt double %22, %24
  br i1 %25, label %26, label %40

26:                                               ; preds = %14
  %27 = load double, ptr %7, align 8, !tbaa !179
  %28 = getelementptr inbounds nuw %"class.sls::bv_lookahead", ptr %8, i32 0, i32 12
  store double %27, ptr %28, align 8, !tbaa !67
  %29 = load ptr, ptr %5, align 8, !tbaa !173
  %30 = getelementptr inbounds nuw %"class.sls::bv_lookahead", ptr %8, i32 0, i32 15
  store ptr %29, ptr %30, align 8, !tbaa !69
  %31 = getelementptr inbounds nuw %"class.sls::bv_lookahead", ptr %8, i32 0, i32 14
  %32 = load ptr, ptr %6, align 8, !tbaa !107
  %33 = getelementptr inbounds nuw %"class.sls::bvect", ptr %32, i32 0, i32 1
  %34 = load i32, ptr %33, align 8, !tbaa !109
  call void @_ZN3sls5bvect6set_bwEj(ptr noundef nonnull align 8 dereferenceable(20) %31, i32 noundef %34)
  %35 = load ptr, ptr %6, align 8, !tbaa !107
  %36 = load ptr, ptr %6, align 8, !tbaa !107
  %37 = getelementptr inbounds nuw %"class.sls::bvect", ptr %36, i32 0, i32 2
  %38 = load i32, ptr %37, align 4, !tbaa !110
  %39 = getelementptr inbounds nuw %"class.sls::bv_lookahead", ptr %8, i32 0, i32 14
  call void @_ZNK3sls5bvect7copy_toEjRS0_(ptr noundef nonnull align 8 dereferenceable(20) %35, i32 noundef %38, ptr noundef nonnull align 8 dereferenceable(20) %39)
  br label %40

40:                                               ; preds = %26, %14
  call void @llvm.lifetime.end.p0(i64 8, ptr %7) #3
  br label %41

41:                                               ; preds = %40, %13
  ret void
}