; Function Attrs: mustprogress uwtable
define hidden void @_ZN3sls12bv_lookahead7try_setEP4exprRKNS_5bvectE(ptr noundef nonnull align 8 dereferenceable(400) %0, ptr noundef %1, ptr noundef nonnull align 8 dereferenceable(20) %2) local_unnamed_addr #3 align 2 {
  %4 = getelementptr inbounds nuw i8, ptr %0, i64 24
  %5 = load ptr, ptr %4, align 8, !tbaa !96
  %6 = tail call noundef nonnull align 8 dereferenceable(184) ptr @_ZNK3sls7bv_eval4wvalEP4expr(ptr noundef nonnull align 8 dereferenceable(865) %5, ptr noundef %1)
  %7 = tail call noundef zeroext i1 @_ZNK3sls12bv_valuation7can_setERKNS_5bvectE(ptr noundef nonnull align 8 dereferenceable(184) %6, ptr noundef nonnull align 8 dereferenceable(20) %2)
  br i1 %7, label %8, label %_ZNK3sls5bvect7copy_toEjRS0_.exit

8:                                                ; preds = %3
  %9 = tail call noundef double @_ZN3sls12bv_lookahead16lookahead_updateEP4exprRKNS_5bvectE(ptr noundef nonnull align 8 dereferenceable(400) %0, ptr noundef %1, ptr noundef nonnull align 8 dereferenceable(20) %2)
  %10 = getelementptr inbounds nuw i8, ptr %0, i64 152
  %11 = load i32, ptr %10, align 8, !tbaa !201
  %12 = add i32 %11, 1
  store i32 %12, ptr %10, align 8, !tbaa !201
  %13 = getelementptr inbounds nuw i8, ptr %0, i64 272
  %14 = load double, ptr %13, align 8, !tbaa !143
  %15 = fcmp ogt double %9, %14
  br i1 %15, label %16, label %_ZNK3sls5bvect7copy_toEjRS0_.exit

16:                                               ; preds = %8
  store double %9, ptr %13, align 8, !tbaa !143
  %17 = getelementptr inbounds nuw i8, ptr %0, i64 312
  store ptr %1, ptr %17, align 8, !tbaa !141
  %18 = getelementptr inbounds nuw i8, ptr %0, i64 288
  %19 = getelementptr inbounds nuw i8, ptr %2, i64 8
  %20 = load i32, ptr %19, align 8, !tbaa !203
  tail call void @_ZN3sls5bvect6set_bwEj(ptr noundef nonnull align 8 dereferenceable(20) %18, i32 noundef %20)
  %21 = getelementptr inbounds nuw i8, ptr %2, i64 12
  %22 = load i32, ptr %21, align 4, !tbaa !204
  %.not.i = icmp eq i32 %22, 0
  br i1 %.not.i, label %_ZNK3sls5bvect7copy_toEjRS0_.exit, label %.lr.ph.i

.lr.ph.i:                                         ; preds = %16
  %23 = load ptr, ptr %2, align 8, !tbaa !194
  %24 = load ptr, ptr %18, align 8, !tbaa !194
  %wide.trip.count.i = zext i32 %22 to i64
  br label %25

25:                                               ; preds = %25, %.lr.ph.i
  %indvars.iv.i = phi i64 [ 0, %.lr.ph.i ], [ %indvars.iv.next.i, %25 ]
  %26 = getelementptr inbounds nuw i32, ptr %23, i64 %indvars.iv.i
  %27 = load i32, ptr %26, align 4, !tbaa !133
  %28 = getelementptr inbounds nuw i32, ptr %24, i64 %indvars.iv.i
  store i32 %27, ptr %28, align 4, !tbaa !133
  %indvars.iv.next.i = add nuw nsw i64 %indvars.iv.i, 1
  %exitcond.not.i = icmp eq i64 %indvars.iv.next.i, %wide.trip.count.i
  br i1 %exitcond.not.i, label %_ZNK3sls5bvect7copy_toEjRS0_.exit, label %25, !llvm.loop !195

_ZNK3sls5bvect7copy_toEjRS0_.exit:                ; preds = %25, %16, %8, %3
  ret void
}